; Function Attrs: mustprogress uwtable
define void @_ZN3gmx21CommandLineHelpModuleC2ERKNS_15IProgramContextERKNSt7__cxx1112basic_stringIcSt11char_traitsIcESaIcEEERKSt3mapIS9_St10unique_ptrINS_18ICommandLineModuleESt14default_deleteISE_EESt4lessIS9_ESaISt4pairISA_SH_EEERKSt6vectorISD_INS_26CommandLineModuleGroupDataESF_ISR_EESaIST_EE(ptr nocapture noundef nonnull writeonly align 8 dereferenceable(16) %0, ptr noundef nonnull align 8 dereferenceable(8) %1, ptr noundef nonnull align 8 dereferenceable(32) %2, ptr noundef nonnull align 8 dereferenceable(48) %3, ptr noundef nonnull align 8 dereferenceable(24) %4) unnamed_addr #1 align 2 personality ptr @__gxx_personality_v0 {
  store ptr getelementptr inbounds inrange(-16, 56) ({ [9 x ptr] }, ptr @_ZTVN3gmx21CommandLineHelpModuleE, i64 0, i32 0, i64 2), ptr %0, align 8
  %6 = tail call noalias noundef nonnull dereferenceable(168) ptr @_Znwm(i64 noundef 168) #21
  invoke void @_ZN3gmx25CommandLineHelpModuleImplC1ERKNS_15IProgramContextERKNSt7__cxx1112basic_stringIcSt11char_traitsIcESaIcEEERKSt3mapIS9_St10unique_ptrINS_18ICommandLineModuleESt14default_deleteISE_EESt4lessIS9_ESaISt4pairISA_SH_EEERKSt6vectorISD_INS_26CommandLineModuleGroupDataESF_ISR_EESaIST_EE(ptr noundef nonnull align 8 dereferenceable(168) %6, ptr noundef nonnull align 8 dereferenceable(8) %1, ptr noundef nonnull align 8 dereferenceable(32) %2, ptr noundef nonnull align 8 dereferenceable(48) %3, ptr noundef nonnull align 8 dereferenceable(24) %4)
          to label %7 unwind label %9

7:                                                ; preds = %5
  %8 = getelementptr inbounds i8, ptr %0, i64 8
  store ptr %6, ptr %8, align 8
  ret void

9:                                                ; preds = %5
  %10 = landingpad { ptr, i32 }
          cleanup
  tail call void @_ZdlPv(ptr noundef nonnull %6) #20
  resume { ptr, i32 } %10
}